; Function Attrs: mustprogress uwtable
define dso_local void @_ZN6spdlog7details11thread_poolC2Emm(ptr noundef nonnull align 8 dereferenceable(224) %this, i64 noundef %q_max_items, i64 noundef %threads_n) unnamed_addr #0 align 2 personality ptr @__gxx_personality_v0 {
entry:
  %agg.tmp = alloca %"class.std::function.37", align 8
  %agg.tmp2 = alloca %"class.std::function.37", align 8
  %_M_manager.i.i = getelementptr inbounds i8, ptr %agg.tmp, i64 16
  %_M_invoker.i = getelementptr inbounds i8, ptr %agg.tmp, i64 24
  call void @llvm.memset.p0.i64(ptr noundef nonnull align 8 dereferenceable(16) %agg.tmp, i8 0, i64 16, i1 false)
  store ptr @"_ZNSt17_Function_handlerIFvvEZN6spdlog7details11thread_poolC1EmmE3$_0E9_M_invokeERKSt9_Any_data", ptr %_M_invoker.i, align 8
  store ptr @"_ZNSt17_Function_handlerIFvvEZN6spdlog7details11thread_poolC1EmmE3$_0E10_M_managerERSt9_Any_dataRKS6_St18_Manager_operation", ptr %_M_manager.i.i, align 8
  %_M_manager.i.i1 = getelementptr inbounds i8, ptr %agg.tmp2, i64 16
  %_M_invoker.i2 = getelementptr inbounds i8, ptr %agg.tmp2, i64 24
  call void @llvm.memset.p0.i64(ptr noundef nonnull align 8 dereferenceable(16) %agg.tmp2, i8 0, i64 16, i1 false)
  store ptr @"_ZNSt17_Function_handlerIFvvEZN6spdlog7details11thread_poolC1EmmE3$_1E9_M_invokeERKSt9_Any_data", ptr %_M_invoker.i2, align 8
  store ptr @"_ZNSt17_Function_handlerIFvvEZN6spdlog7details11thread_poolC1EmmE3$_1E10_M_managerERSt9_Any_dataRKS6_St18_Manager_operation", ptr %_M_manager.i.i1, align 8
  invoke void @_ZN6spdlog7details11thread_poolC2EmmSt8functionIFvvEES4_(ptr noundef nonnull align 8 dereferenceable(224) %this, i64 noundef %q_max_items, i64 noundef %threads_n, ptr noundef nonnull %agg.tmp, ptr noundef nonnull %agg.tmp2)
          to label %invoke.cont unwind label %lpad

invoke.cont:                                      ; preds = %entry
  %0 = load ptr, ptr %_M_manager.i.i1, align 8
  %tobool.not.i.i = icmp eq ptr %0, null
  br i1 %tobool.not.i.i, label %_ZNSt8functionIFvvEED2Ev.exit, label %if.then.i.i

if.then.i.i:                                      ; preds = %invoke.cont
  %call.i.i = invoke noundef zeroext i1 %0(ptr noundef nonnull align 8 dereferenceable(16) %agg.tmp2, ptr noundef nonnull align 8 dereferenceable(16) %agg.tmp2, i32 noundef 3)
          to label %_ZNSt8functionIFvvEED2Ev.exit unwind label %terminate.lpad.i.i

terminate.lpad.i.i:                               ; preds = %if.then.i.i
  %1 = landingpad { ptr, i32 }
          catch ptr null
  %2 = extractvalue { ptr, i32 } %1, 0
  call void @__clang_call_terminate(ptr %2) #20
  unreachable

_ZNSt8functionIFvvEED2Ev.exit:                    ; preds = %invoke.cont, %if.then.i.i
  %3 = load ptr, ptr %_M_manager.i.i, align 8
  %tobool.not.i.i5 = icmp eq ptr %3, null
  br i1 %tobool.not.i.i5, label %_ZNSt8functionIFvvEED2Ev.exit9, label %if.then.i.i6

if.then.i.i6:                                     ; preds = %_ZNSt8functionIFvvEED2Ev.exit
  %call.i.i7 = invoke noundef zeroext i1 %3(ptr noundef nonnull align 8 dereferenceable(16) %agg.tmp, ptr noundef nonnull align 8 dereferenceable(16) %agg.tmp, i32 noundef 3)
          to label %_ZNSt8functionIFvvEED2Ev.exit9 unwind label %terminate.lpad.i.i8

terminate.lpad.i.i8:                              ; preds = %if.then.i.i6
  %4 = landingpad { ptr, i32 }
          catch ptr null
  %5 = extractvalue { ptr, i32 } %4, 0
  call void @__clang_call_terminate(ptr %5) #20
  unreachable

_ZNSt8functionIFvvEED2Ev.exit9:                   ; preds = %_ZNSt8functionIFvvEED2Ev.exit, %if.then.i.i6
  ret void

lpad:                                             ; preds = %entry
  %6 = landingpad { ptr, i32 }
          cleanup
  %7 = load ptr, ptr %_M_manager.i.i1, align 8
  %tobool.not.i.i11 = icmp eq ptr %7, null
  br i1 %tobool.not.i.i11, label %_ZNSt8functionIFvvEED2Ev.exit15, label %if.then.i.i12

if.then.i.i12:                                    ; preds = %lpad
  %call.i.i13 = invoke noundef zeroext i1 %7(ptr noundef nonnull align 8 dereferenceable(16) %agg.tmp2, ptr noundef nonnull align 8 dereferenceable(16) %agg.tmp2, i32 noundef 3)
          to label %_ZNSt8functionIFvvEED2Ev.exit15 unwind label %terminate.lpad.i.i14

terminate.lpad.i.i14:                             ; preds = %if.then.i.i12
  %8 = landingpad { ptr, i32 }
          catch ptr null
  %9 = extractvalue { ptr, i32 } %8, 0
  call void @__clang_call_terminate(ptr %9) #20
  unreachable

_ZNSt8functionIFvvEED2Ev.exit15:                  ; preds = %lpad, %if.then.i.i12
  %10 = load ptr, ptr %_M_manager.i.i, align 8
  %tobool.not.i.i17 = icmp eq ptr %10, null
  br i1 %tobool.not.i.i17, label %_ZNSt8functionIFvvEED2Ev.exit21, label %if.then.i.i18

if.then.i.i18:                                    ; preds = %_ZNSt8functionIFvvEED2Ev.exit15
  %call.i.i19 = invoke noundef zeroext i1 %10(ptr noundef nonnull align 8 dereferenceable(16) %agg.tmp, ptr noundef nonnull align 8 dereferenceable(16) %agg.tmp, i32 noundef 3)
          to label %_ZNSt8functionIFvvEED2Ev.exit21 unwind label %terminate.lpad.i.i20

terminate.lpad.i.i20:                             ; preds = %if.then.i.i18
  %11 = landingpad { ptr, i32 }
          catch ptr null
  %12 = extractvalue { ptr, i32 } %11, 0
  call void @__clang_call_terminate(ptr %12) #20
  unreachable

_ZNSt8functionIFvvEED2Ev.exit21:                  ; preds = %_ZNSt8functionIFvvEED2Ev.exit15, %if.then.i.i18
  resume { ptr, i32 } %6
}